; Function Attrs: mustprogress uwtable
define i64 @gguf_get_tensor_size(ptr noundef readonly captures(none) %0, i64 noundef %1) local_unnamed_addr #2 {
  %3 = icmp sgt i64 %1, -1
  br i1 %3, label %4, label %14

4:                                                ; preds = %2
  %5 = getelementptr inbounds nuw i8, ptr %0, i64 32
  %6 = getelementptr inbounds nuw i8, ptr %0, i64 40
  %7 = load ptr, ptr %6, align 8, !tbaa !75
  %8 = load ptr, ptr %5, align 8, !tbaa !46
  %9 = ptrtoint ptr %7 to i64
  %10 = ptrtoint ptr %8 to i64
  %11 = sub i64 %9, %10
  %12 = sdiv exact i64 %11, 344
  %13 = icmp slt i64 %1, %12
  br i1 %13, label %15, label %14

14:                                               ; preds = %4, %2
  tail call void (ptr, i32, ptr, ...) @ggml_abort(ptr noundef nonnull @.str.28, i32 noundef 917, ptr noundef nonnull @.str.29, ptr noundef nonnull @.str.59) #33
  unreachable

15:                                               ; preds = %4
  %16 = getelementptr inbounds nuw %struct.gguf_tensor_info, ptr %8, i64 %1
  %17 = tail call i64 @ggml_nbytes(ptr noundef nonnull %16)
  ret i64 %17
}